target datalayout = "e-m:e-p270:32:32-p271:32:32-p272:64:64-i64:64-i128:128-f80:128-n8:16:32:64-S128"
target triple = "x86_64-pc-linux-gnu"

%struct.AVCodecContext = type { ptr, i32, i32, ptr, i32, i32, ptr, ptr, ptr, i64, i32, i32, ptr, i32, %struct.AVRational, %struct.AVRational, %struct.AVRational, i32, i32, i32, i32, i32, %struct.AVRational, i32, i32, i32, i32, i32, i32, i32, i32, i32, i32, i32, ptr, ptr, i32, float, float, float, float, float, float, float, float, float, i32, i32, i32, i32, i32, i32, i32, i32, i32, i32, i32, i32, ptr, ptr, ptr, i32, i32, i32, i32, i32, i32, i32, i32, i32, i32, %struct.AVChannelLayout, i32, i32, i32, i32, i32, i32, i32, i32, ptr, i32, i32, i32, float, float, i32, i32, i32, i32, i32, ptr, i64, i64, float, float, i32, i32, ptr, ptr, i32, i32, i32, i32, i32, ptr, ptr, ptr, ptr, i32, i32, [8 x i64], i32, i32, i32, i32, i32, i32, i32, ptr, ptr, i32, i32, i32, i32, i32, i32, i32, i32, i32, i32, ptr, ptr, i32, i32, ptr, ptr, ptr, ptr, i32, i32, i64, i32, i32, i64, ptr, i64, ptr, i32, ptr, i32 }
%struct.AVRational = type { i32, i32 }
%struct.AVChannelLayout = type { i32, i32, %union.anon.0, ptr }
%union.anon.0 = type { i64 }
%struct.TTAEncContext = type { ptr, i32, ptr, %struct.TTAEncDSPContext }
%struct.TTAEncDSPContext = type { ptr }

@.str.2 = private unnamed_addr constant [32 x i8] c"encoding as 24 bits-per-sample\0A\00", align 1

; Function Attrs: cold nounwind optsize uwtable
define internal i32 @tta_encode_init(ptr noundef %0) #0 {
  %2 = alloca i32, align 4
  %3 = alloca ptr, align 8
  %4 = alloca ptr, align 8
  %5 = alloca i32, align 4
  store ptr %0, ptr %3, align 8, !tbaa !4
  call void @llvm.lifetime.start.p0(i64 8, ptr %4) #7
  %6 = load ptr, ptr %3, align 8, !tbaa !4
  %7 = getelementptr inbounds nuw %struct.AVCodecContext, ptr %6, i32 0, i32 6
  %8 = load ptr, ptr %7, align 8, !tbaa !9
  store ptr %8, ptr %4, align 8, !tbaa !29
  %9 = call ptr @av_crc_get_table(i32 noundef 4)
  %10 = load ptr, ptr %4, align 8, !tbaa !29
  %11 = getelementptr inbounds nuw %struct.TTAEncContext, ptr %10, i32 0, i32 0
  store ptr %9, ptr %11, align 8, !tbaa !31
  %12 = load ptr, ptr %3, align 8, !tbaa !4
  %13 = getelementptr inbounds nuw %struct.AVCodecContext, ptr %12, i32 0, i32 70
  %14 = load i32, ptr %13, align 4, !tbaa !35
  switch i32 %14, label %31 [
    i32 0, label %15
    i32 1, label %18
    i32 2, label %21
  ]

15:                                               ; preds = %1
  %16 = load ptr, ptr %3, align 8, !tbaa !4
  %17 = getelementptr inbounds nuw %struct.AVCodecContext, ptr %16, i32 0, i32 115
  store i32 8, ptr %17, align 4, !tbaa !36
  br label %31

18:                                               ; preds = %1
  %19 = load ptr, ptr %3, align 8, !tbaa !4
  %20 = getelementptr inbounds nuw %struct.AVCodecContext, ptr %19, i32 0, i32 115
  store i32 16, ptr %20, align 4, !tbaa !36
  br label %31

21:                                               ; preds = %1
  %22 = load ptr, ptr %3, align 8, !tbaa !4
  %23 = getelementptr inbounds nuw %struct.AVCodecContext, ptr %22, i32 0, i32 115
  %24 = load i32, ptr %23, align 4, !tbaa !36
  %25 = icmp sgt i32 %24, 24
  br i1 %25, label %26, label %28

26:                                               ; preds = %21
  %27 = load ptr, ptr %3, align 8, !tbaa !4
  call void (ptr, i32, ptr, ...) @av_log(ptr noundef %27, i32 noundef 24, ptr noundef @.str.2)
  br label %28

28:                                               ; preds = %26, %21
  %29 = load ptr, ptr %3, align 8, !tbaa !4
  %30 = getelementptr inbounds nuw %struct.AVCodecContext, ptr %29, i32 0, i32 115
  store i32 24, ptr %30, align 4, !tbaa !36
  br label %31

31:                                               ; preds = %28, %1, %18, %15
  %32 = load ptr, ptr %3, align 8, !tbaa !4
  %33 = getelementptr inbounds nuw %struct.AVCodecContext, ptr %32, i32 0, i32 115
  %34 = load i32, ptr %33, align 4, !tbaa !36
  %35 = ashr i32 %34, 3
  %36 = load ptr, ptr %4, align 8, !tbaa !29
  %37 = getelementptr inbounds nuw %struct.TTAEncContext, ptr %36, i32 0, i32 1
  store i32 %35, ptr %37, align 8, !tbaa !37
  %38 = load ptr, ptr %3, align 8, !tbaa !4
  %39 = getelementptr inbounds nuw %struct.AVCodecContext, ptr %38, i32 0, i32 69
  %40 = load i32, ptr %39, align 8, !tbaa !38
  %41 = mul nsw i32 256, %40
  %42 = sdiv i32 %41, 245
  %43 = load ptr, ptr %3, align 8, !tbaa !4
  %44 = getelementptr inbounds nuw %struct.AVCodecContext, ptr %43, i32 0, i32 72
  store i32 %42, ptr %44, align 8, !tbaa !39
  %45 = load ptr, ptr %3, align 8, !tbaa !4
  %46 = getelementptr inbounds nuw %struct.AVCodecContext, ptr %45, i32 0, i32 71
  %47 = getelementptr inbounds nuw %struct.AVChannelLayout, ptr %46, i32 0, i32 1
  %48 = load i32, ptr %47, align 4, !tbaa !40
  %49 = sext i32 %48 to i64
  %50 = call ptr @av_malloc_array(i64 noundef %49, i64 noundef 224)
  %51 = load ptr, ptr %4, align 8, !tbaa !29
  %52 = getelementptr inbounds nuw %struct.TTAEncContext, ptr %51, i32 0, i32 2
  store ptr %50, ptr %52, align 8, !tbaa !41
  %53 = load ptr, ptr %4, align 8, !tbaa !29
  %54 = getelementptr inbounds nuw %struct.TTAEncContext, ptr %53, i32 0, i32 2
  %55 = load ptr, ptr %54, align 8, !tbaa !41
  %56 = icmp ne ptr %55, null
  br i1 %56, label %58, label %57

57:                                               ; preds = %31
  store i32 -12, ptr %2, align 4
  store i32 1, ptr %5, align 4
  br label %61

58:                                               ; preds = %31
  %59 = load ptr, ptr %4, align 8, !tbaa !29
  %60 = getelementptr inbounds nuw %struct.TTAEncContext, ptr %59, i32 0, i32 3
  call void @ff_ttaencdsp_init(ptr noundef %60)
  store i32 0, ptr %2, align 4
  store i32 1, ptr %5, align 4
  br label %61

61:                                               ; preds = %58, %57
  call void @llvm.lifetime.end.p0(i64 8, ptr %4) #7
  %62 = load i32, ptr %2, align 4
  ret i32 %62
}