; Function Attrs: cold nounwind optsize uwtable
define internal range(i32 -12, 1) i32 @tta_encode_init(ptr noundef %0) #0 {
  %2 = getelementptr inbounds nuw i8, ptr %0, i64 32
  %3 = load ptr, ptr %2, align 8, !tbaa !4
  %4 = tail call ptr @av_crc_get_table(i32 noundef 4) #7
  store ptr %4, ptr %3, align 8, !tbaa !27
  %5 = getelementptr inbounds nuw i8, ptr %0, i64 348
  %6 = load i32, ptr %5, align 4, !tbaa !31
  %.phi.trans.insert = getelementptr inbounds nuw i8, ptr %0, i64 652
  switch i32 %6, label %._crit_edge [
    i32 0, label %8
    i32 1, label %9
    i32 2, label %10
  ]

._crit_edge:                                      ; preds = %1
  %.pre = load i32, ptr %.phi.trans.insert, align 4, !tbaa !32
  %7 = ashr i32 %.pre, 3
  br label %15

8:                                                ; preds = %1
  store i32 8, ptr %.phi.trans.insert, align 4, !tbaa !32
  br label %15

9:                                                ; preds = %1
  store i32 16, ptr %.phi.trans.insert, align 4, !tbaa !32
  br label %15

10:                                               ; preds = %1
  %11 = load i32, ptr %.phi.trans.insert, align 4, !tbaa !32
  %12 = icmp sgt i32 %11, 24
  br i1 %12, label %13, label %14

13:                                               ; preds = %10
  tail call void (ptr, i32, ptr, ...) @av_log(ptr noundef nonnull %0, i32 noundef 24, ptr noundef nonnull @.str.2) #7
  br label %14

14:                                               ; preds = %13, %10
  store i32 24, ptr %.phi.trans.insert, align 4, !tbaa !32
  br label %15

15:                                               ; preds = %._crit_edge, %14, %9, %8
  %16 = phi i32 [ %7, %._crit_edge ], [ 3, %14 ], [ 2, %9 ], [ 1, %8 ]
  %17 = getelementptr inbounds nuw i8, ptr %3, i64 8
  store i32 %16, ptr %17, align 8, !tbaa !33
  %18 = getelementptr inbounds nuw i8, ptr %0, i64 344
  %19 = load i32, ptr %18, align 8, !tbaa !34
  %20 = shl nsw i32 %19, 8
  %21 = sdiv i32 %20, 245
  %22 = getelementptr inbounds nuw i8, ptr %0, i64 376
  store i32 %21, ptr %22, align 8, !tbaa !35
  %23 = getelementptr inbounds nuw i8, ptr %0, i64 356
  %24 = load i32, ptr %23, align 4, !tbaa !36
  %25 = sext i32 %24 to i64
  %26 = tail call ptr @av_malloc_array(i64 noundef %25, i64 noundef 224) #7
  %27 = getelementptr inbounds nuw i8, ptr %3, i64 16
  store ptr %26, ptr %27, align 8, !tbaa !37
  %.not = icmp eq ptr %26, null
  br i1 %.not, label %30, label %28

28:                                               ; preds = %15
  %29 = getelementptr inbounds nuw i8, ptr %3, i64 24
  tail call void @ff_ttaencdsp_init(ptr noundef nonnull %29) #7
  br label %30

30:                                               ; preds = %15, %28
  %.0 = phi i32 [ 0, %28 ], [ -12, %15 ]
  ret i32 %.0
}